target datalayout = "e-m:e-p270:32:32-p271:32:32-p272:64:64-i64:64-i128:128-f80:128-n8:16:32:64-S128"
target triple = "x86_64-pc-linux-gnu"

%"class.std::vector" = type { %"struct.std::_Vector_base" }
%"struct.std::_Vector_base" = type { %"struct.std::_Vector_base<std::__cxx11::basic_string<char>, std::allocator<std::__cxx11::basic_string<char>>>::_Vector_impl" }
%"struct.std::_Vector_base<std::__cxx11::basic_string<char>, std::allocator<std::__cxx11::basic_string<char>>>::_Vector_impl" = type { %"struct.std::_Vector_base<std::__cxx11::basic_string<char>, std::allocator<std::__cxx11::basic_string<char>>>::_Vector_impl_data" }
%"struct.std::_Vector_base<std::__cxx11::basic_string<char>, std::allocator<std::__cxx11::basic_string<char>>>::_Vector_impl_data" = type { ptr, ptr, ptr }
%"class.std::__cxx11::basic_string" = type { %"struct.std::__cxx11::basic_string<char>::_Alloc_hider", i64, %union.anon }
%"struct.std::__cxx11::basic_string<char>::_Alloc_hider" = type { ptr }
%union.anon = type { i64, [8 x i8] }
%class.TransTableL = type { %class.TransTable, i32, i32, i32, i32, i32, i32, %"struct.TransTableL::pageStatsType", [8192 x %"struct.TransTableL::aggrType"], [12 x [4 x ptr]], [12 x [4 x ptr]], ptr, ptr, %"struct.TransTableL::harvestedType", i32, i32 }
%class.TransTable = type { ptr }
%"struct.TransTableL::pageStatsType" = type { i32, i32, i32, i32, i32 }
%"struct.TransTableL::aggrType" = type { [4 x i32], [4 x [4 x i32]] }
%"struct.TransTableL::harvestedType" = type { i32, [1000 x ptr] }
%"struct.TransTableL::distHashType" = type { i32, i32, [32 x %"struct.TransTableL::posSearchType"] }
%"struct.TransTableL::posSearchType" = type { ptr, i64 }

@_ZL7playersB5cxx11 = internal global %"class.std::vector" zeroinitializer, align 8
@.str.7 = private unnamed_addr constant [2 x i8] c"\0A\00", align 1
@.str.12 = private unnamed_addr constant [3 x i8] c"\0A\0A\00", align 1
@.str.21 = private unnamed_addr constant [8 x i8] c", hand \00", align 1
@.str.39 = private unnamed_addr constant [24 x i8] c"Entry not found: Trick \00", align 1

; Function Attrs: mustprogress nounwind uwtable
define void @_ZNK11TransTableL9KeyToDistExPi(ptr noundef nonnull align 8 dereferenceable(664216) %0, i64 noundef %1, ptr noundef %2) #5 align 2 {
  %4 = alloca ptr, align 8
  %5 = alloca i64, align 8
  %6 = alloca ptr, align 8
  store ptr %0, ptr %4, align 8
  store i64 %1, ptr %5, align 8
  store ptr %2, ptr %6, align 8
  %7 = load i64, ptr %5, align 8
  %8 = ashr i64 %7, 36
  %9 = and i64 %8, 4095
  %10 = trunc i64 %9 to i32
  %11 = load ptr, ptr %6, align 8
  %12 = getelementptr inbounds i32, ptr %11, i64 0
  store i32 %10, ptr %12, align 4
  %13 = load i64, ptr %5, align 8
  %14 = ashr i64 %13, 24
  %15 = and i64 %14, 4095
  %16 = trunc i64 %15 to i32
  %17 = load ptr, ptr %6, align 8
  %18 = getelementptr inbounds i32, ptr %17, i64 1
  store i32 %16, ptr %18, align 4
  %19 = load i64, ptr %5, align 8
  %20 = ashr i64 %19, 12
  %21 = and i64 %20, 4095
  %22 = trunc i64 %21 to i32
  %23 = load ptr, ptr %6, align 8
  %24 = getelementptr inbounds i32, ptr %23, i64 2
  store i32 %22, ptr %24, align 4
  %25 = load i64, ptr %5, align 8
  %26 = and i64 %25, 4095
  %27 = trunc i64 %26 to i32
  %28 = load ptr, ptr %6, align 8
  %29 = getelementptr inbounds i32, ptr %28, i64 3
  store i32 %27, ptr %29, align 4
  ret void
}

; Function Attrs: mustprogress nounwind uwtable
define linkonce_odr noundef nonnull align 8 dereferenceable(32) ptr @_ZNSt6vectorINSt7__cxx1112basic_stringIcSt11char_traitsIcESaIcEEESaIS5_EEixEm(ptr noundef nonnull align 8 dereferenceable(24) %0, i64 noundef %1) #5 comdat align 2 {
  %3 = alloca ptr, align 8
  %4 = alloca i64, align 8
  store ptr %0, ptr %3, align 8
  store i64 %1, ptr %4, align 8
  %5 = load ptr, ptr %3, align 8
  %6 = getelementptr inbounds nuw %"struct.std::_Vector_base", ptr %5, i32 0, i32 0
  %7 = getelementptr inbounds nuw %"struct.std::_Vector_base<std::__cxx11::basic_string<char>, std::allocator<std::__cxx11::basic_string<char>>>::_Vector_impl_data", ptr %6, i32 0, i32 0
  %8 = load ptr, ptr %7, align 8
  %9 = load i64, ptr %4, align 8
  %10 = getelementptr inbounds %"class.std::__cxx11::basic_string", ptr %8, i64 %9
  ret ptr %10
}

; Function Attrs: mustprogress nounwind uwtable
define void @_ZNK11TransTableL13DistToLengthsEiPKiPA4_h(ptr noundef nonnull align 8 dereferenceable(664216) %0, i32 noundef %1, ptr noundef %2, ptr noundef %3) #5 align 2 {
  %5 = alloca ptr, align 8
  %6 = alloca i32, align 4
  %7 = alloca ptr, align 8
  %8 = alloca ptr, align 8
  %9 = alloca i32, align 4
  store ptr %0, ptr %5, align 8
  store i32 %1, ptr %6, align 4
  store ptr %2, ptr %7, align 8
  store ptr %3, ptr %8, align 8
  store i32 0, ptr %9, align 4
  br label %10

10:                                               ; preds = %84, %4
  %11 = load i32, ptr %9, align 4
  %12 = icmp slt i32 %11, 4
  br i1 %12, label %13, label %87

13:                                               ; preds = %10
  %14 = load ptr, ptr %7, align 8
  %15 = load i32, ptr %9, align 4
  %16 = sext i32 %15 to i64
  %17 = getelementptr inbounds i32, ptr %14, i64 %16
  %18 = load i32, ptr %17, align 4
  %19 = ashr i32 %18, 8
  %20 = and i32 %19, 15
  %21 = trunc i32 %20 to i8
  %22 = load ptr, ptr %8, align 8
  %23 = load i32, ptr %9, align 4
  %24 = sext i32 %23 to i64
  %25 = getelementptr inbounds [4 x i8], ptr %22, i64 %24
  %26 = getelementptr inbounds [4 x i8], ptr %25, i64 0, i64 0
  store i8 %21, ptr %26, align 1
  %27 = load ptr, ptr %7, align 8
  %28 = load i32, ptr %9, align 4
  %29 = sext i32 %28 to i64
  %30 = getelementptr inbounds i32, ptr %27, i64 %29
  %31 = load i32, ptr %30, align 4
  %32 = ashr i32 %31, 4
  %33 = and i32 %32, 15
  %34 = trunc i32 %33 to i8
  %35 = load ptr, ptr %8, align 8
  %36 = load i32, ptr %9, align 4
  %37 = sext i32 %36 to i64
  %38 = getelementptr inbounds [4 x i8], ptr %35, i64 %37
  %39 = getelementptr inbounds [4 x i8], ptr %38, i64 0, i64 1
  store i8 %34, ptr %39, align 1
  %40 = load ptr, ptr %7, align 8
  %41 = load i32, ptr %9, align 4
  %42 = sext i32 %41 to i64
  %43 = getelementptr inbounds i32, ptr %40, i64 %42
  %44 = load i32, ptr %43, align 4
  %45 = and i32 %44, 15
  %46 = trunc i32 %45 to i8
  %47 = load ptr, ptr %8, align 8
  %48 = load i32, ptr %9, align 4
  %49 = sext i32 %48 to i64
  %50 = getelementptr inbounds [4 x i8], ptr %47, i64 %49
  %51 = getelementptr inbounds [4 x i8], ptr %50, i64 0, i64 2
  store i8 %46, ptr %51, align 1
  %52 = load i32, ptr %6, align 4
  %53 = add nsw i32 %52, 1
  %54 = load ptr, ptr %8, align 8
  %55 = load i32, ptr %9, align 4
  %56 = sext i32 %55 to i64
  %57 = getelementptr inbounds [4 x i8], ptr %54, i64 %56
  %58 = getelementptr inbounds [4 x i8], ptr %57, i64 0, i64 0
  %59 = load i8, ptr %58, align 1
  %60 = zext i8 %59 to i32
  %61 = sub nsw i32 %53, %60
  %62 = load ptr, ptr %8, align 8
  %63 = load i32, ptr %9, align 4
  %64 = sext i32 %63 to i64
  %65 = getelementptr inbounds [4 x i8], ptr %62, i64 %64
  %66 = getelementptr inbounds [4 x i8], ptr %65, i64 0, i64 1
  %67 = load i8, ptr %66, align 1
  %68 = zext i8 %67 to i32
  %69 = sub nsw i32 %61, %68
  %70 = load ptr, ptr %8, align 8
  %71 = load i32, ptr %9, align 4
  %72 = sext i32 %71 to i64
  %73 = getelementptr inbounds [4 x i8], ptr %70, i64 %72
  %74 = getelementptr inbounds [4 x i8], ptr %73, i64 0, i64 2
  %75 = load i8, ptr %74, align 1
  %76 = zext i8 %75 to i32
  %77 = sub nsw i32 %69, %76
  %78 = trunc i32 %77 to i8
  %79 = load ptr, ptr %8, align 8
  %80 = load i32, ptr %9, align 4
  %81 = sext i32 %80 to i64
  %82 = getelementptr inbounds [4 x i8], ptr %79, i64 %81
  %83 = getelementptr inbounds [4 x i8], ptr %82, i64 0, i64 3
  store i8 %78, ptr %83, align 1
  br label %84

84:                                               ; preds = %13
  %85 = load i32, ptr %9, align 4
  %86 = add nsw i32 %85, 1
  store i32 %86, ptr %9, align 4
  br label %10, !llvm.loop !35

87:                                               ; preds = %10
  ret void
}

; Function Attrs: mustprogress nounwind uwtable
define noundef ptr @_ZNK11TransTableL16FindMatchingDistEiiPKi(ptr noundef nonnull align 8 dereferenceable(664216) %0, i32 noundef %1, i32 noundef %2, ptr noundef %3) #5 align 2 {
  %5 = alloca ptr, align 8
  %6 = alloca ptr, align 8
  %7 = alloca i32, align 4
  %8 = alloca i32, align 4
  %9 = alloca ptr, align 8
  %10 = alloca ptr, align 8
  %11 = alloca ptr, align 8
  %12 = alloca [4 x i32], align 16
  %13 = alloca i32, align 4
  %14 = alloca i32, align 4
  %15 = alloca i8, align 1
  %16 = alloca i32, align 4
  store ptr %0, ptr %6, align 8
  store i32 %1, ptr %7, align 4
  store i32 %2, ptr %8, align 4
  store ptr %3, ptr %9, align 8
  %17 = load ptr, ptr %6, align 8
  store i32 0, ptr %13, align 4
  br label %18

18:                                               ; preds = %84, %4
  %19 = load i32, ptr %13, align 4
  %20 = icmp slt i32 %19, 256
  br i1 %20, label %21, label %87

21:                                               ; preds = %18
  %22 = getelementptr inbounds nuw %class.TransTableL, ptr %17, i32 0, i32 9
  %23 = load i32, ptr %7, align 4
  %24 = sext i32 %23 to i64
  %25 = getelementptr inbounds [12 x [4 x ptr]], ptr %22, i64 0, i64 %24
  %26 = load i32, ptr %8, align 4
  %27 = sext i32 %26 to i64
  %28 = getelementptr inbounds [4 x ptr], ptr %25, i64 0, i64 %27
  %29 = load ptr, ptr %28, align 8
  %30 = load i32, ptr %13, align 4
  %31 = sext i32 %30 to i64
  %32 = getelementptr inbounds %"struct.TransTableL::distHashType", ptr %29, i64 %31
  store ptr %32, ptr %11, align 8
  store i32 0, ptr %14, align 4
  br label %33

33:                                               ; preds = %80, %21
  %34 = load i32, ptr %14, align 4
  %35 = load ptr, ptr %11, align 8
  %36 = getelementptr inbounds nuw %"struct.TransTableL::distHashType", ptr %35, i32 0, i32 0
  %37 = load i32, ptr %36, align 8
  %38 = icmp slt i32 %34, %37
  br i1 %38, label %39, label %83

39:                                               ; preds = %33
  %40 = load ptr, ptr %11, align 8
  %41 = getelementptr inbounds nuw %"struct.TransTableL::distHashType", ptr %40, i32 0, i32 2
  %42 = load i32, ptr %14, align 4
  %43 = sext i32 %42 to i64
  %44 = getelementptr inbounds [32 x %"struct.TransTableL::posSearchType"], ptr %41, i64 0, i64 %43
  %45 = getelementptr inbounds nuw %"struct.TransTableL::posSearchType", ptr %44, i32 0, i32 0
  %46 = load ptr, ptr %45, align 8
  store ptr %46, ptr %10, align 8
  %47 = load ptr, ptr %11, align 8
  %48 = getelementptr inbounds nuw %"struct.TransTableL::distHashType", ptr %47, i32 0, i32 2
  %49 = load i32, ptr %14, align 4
  %50 = sext i32 %49 to i64
  %51 = getelementptr inbounds [32 x %"struct.TransTableL::posSearchType"], ptr %48, i64 0, i64 %50
  %52 = getelementptr inbounds nuw %"struct.TransTableL::posSearchType", ptr %51, i32 0, i32 1
  %53 = load i64, ptr %52, align 8
  %54 = getelementptr inbounds [4 x i32], ptr %12, i64 0, i64 0
  call void @_ZNK11TransTableL9KeyToDistExPi(ptr noundef nonnull align 8 dereferenceable(664216) %17, i64 noundef %53, ptr noundef %54)
  store i8 1, ptr %15, align 1
  store i32 0, ptr %16, align 4
  br label %55

55:                                               ; preds = %71, %39
  %56 = load i32, ptr %16, align 4
  %57 = icmp slt i32 %56, 4
  br i1 %57, label %58, label %74

58:                                               ; preds = %55
  %59 = load i32, ptr %16, align 4
  %60 = sext i32 %59 to i64
  %61 = getelementptr inbounds [4 x i32], ptr %12, i64 0, i64 %60
  %62 = load i32, ptr %61, align 4
  %63 = load ptr, ptr %9, align 8
  %64 = load i32, ptr %16, align 4
  %65 = sext i32 %64 to i64
  %66 = getelementptr inbounds i32, ptr %63, i64 %65
  %67 = load i32, ptr %66, align 4
  %68 = icmp ne i32 %62, %67
  br i1 %68, label %69, label %70

69:                                               ; preds = %58
  store i8 0, ptr %15, align 1
  br label %74

70:                                               ; preds = %58
  br label %71

71:                                               ; preds = %70
  %72 = load i32, ptr %16, align 4
  %73 = add nsw i32 %72, 1
  store i32 %73, ptr %16, align 4
  br label %55, !llvm.loop !52

74:                                               ; preds = %69, %55
  %75 = load i8, ptr %15, align 1
  %76 = trunc i8 %75 to i1
  br i1 %76, label %77, label %79

77:                                               ; preds = %74
  %78 = load ptr, ptr %10, align 8
  store ptr %78, ptr %5, align 8
  br label %88

79:                                               ; preds = %74
  br label %80

80:                                               ; preds = %79
  %81 = load i32, ptr %14, align 4
  %82 = add nsw i32 %81, 1
  store i32 %82, ptr %14, align 4
  br label %33, !llvm.loop !53

83:                                               ; preds = %33
  br label %84

84:                                               ; preds = %83
  %85 = load i32, ptr %13, align 4
  %86 = add nsw i32 %85, 1
  store i32 %86, ptr %13, align 4
  br label %18, !llvm.loop !54

87:                                               ; preds = %18
  store ptr null, ptr %5, align 8
  br label %88

88:                                               ; preds = %87, %77
  %89 = load ptr, ptr %5, align 8
  ret ptr %89
}

; Function Attrs: mustprogress uwtable
define void @_ZNK11TransTableL16PrintEntriesDistERSt14basic_ofstreamIcSt11char_traitsIcEEiiPKi(ptr noundef nonnull align 8 dereferenceable(664216) %0, ptr noundef nonnull align 8 dereferenceable(248) %1, i32 noundef %2, i32 noundef %3, ptr noundef %4) unnamed_addr #4 align 2 personality ptr @__gxx_personality_v0 {
  %6 = alloca ptr, align 8
  %7 = alloca ptr, align 8
  %8 = alloca i32, align 4
  %9 = alloca i32, align 4
  %10 = alloca ptr, align 8
  %11 = alloca [4 x [4 x i8]], align 16
  %12 = alloca ptr, align 8
  %13 = alloca %"class.std::__cxx11::basic_string", align 8
  %14 = alloca ptr, align 8
  %15 = alloca i32, align 4
  store ptr %0, ptr %6, align 8
  store ptr %1, ptr %7, align 8
  store i32 %2, ptr %8, align 4
  store i32 %3, ptr %9, align 4
  store ptr %4, ptr %10, align 8
  %16 = load ptr, ptr %6, align 8
  %17 = load i32, ptr %8, align 4
  %18 = load i32, ptr %9, align 4
  %19 = load ptr, ptr %10, align 8
  %20 = call noundef ptr @_ZNK11TransTableL16FindMatchingDistEiiPKi(ptr noundef nonnull align 8 dereferenceable(664216) %16, i32 noundef %17, i32 noundef %18, ptr noundef %19)
  store ptr %20, ptr %12, align 8
  %21 = load i32, ptr %8, align 4
  %22 = load ptr, ptr %10, align 8
  %23 = getelementptr inbounds [4 x [4 x i8]], ptr %11, i64 0, i64 0
  call void @_ZNK11TransTableL13DistToLengthsEiPKiPA4_h(ptr noundef nonnull align 8 dereferenceable(664216) %16, i32 noundef %21, ptr noundef %22, ptr noundef %23)
  %24 = load ptr, ptr %12, align 8
  %25 = icmp ne ptr %24, null
  br i1 %25, label %47, label %26

26:                                               ; preds = %5
  %27 = load ptr, ptr %7, align 8
  %28 = call noundef nonnull align 8 dereferenceable(8) ptr @_ZStlsISt11char_traitsIcEERSt13basic_ostreamIcT_ES5_PKc(ptr noundef nonnull align 8 dereferenceable(8) %27, ptr noundef @.str.39)
  %29 = load i32, ptr %8, align 4
  %30 = call noundef nonnull align 8 dereferenceable(8) ptr @_ZNSolsEi(ptr noundef nonnull align 8 dereferenceable(8) %28, i32 noundef %29)
  %31 = call noundef nonnull align 8 dereferenceable(8) ptr @_ZStlsISt11char_traitsIcEERSt13basic_ostreamIcT_ES5_PKc(ptr noundef nonnull align 8 dereferenceable(8) %30, ptr noundef @.str.21)
  %32 = load i32, ptr %9, align 4
  %33 = zext i32 %32 to i64
  %34 = call noundef nonnull align 8 dereferenceable(32) ptr @_ZNSt6vectorINSt7__cxx1112basic_stringIcSt11char_traitsIcESaIcEEESaIS5_EEixEm(ptr noundef nonnull align 8 dereferenceable(24) @_ZL7playersB5cxx11, i64 noundef %33) #3
  %35 = call noundef nonnull align 8 dereferenceable(8) ptr @_ZStlsIcSt11char_traitsIcESaIcEERSt13basic_ostreamIT_T0_ES7_RKNSt7__cxx1112basic_stringIS4_S5_T1_EE(ptr noundef nonnull align 8 dereferenceable(8) %31, ptr noundef nonnull align 8 dereferenceable(32) %34)
  %36 = call noundef nonnull align 8 dereferenceable(8) ptr @_ZStlsISt11char_traitsIcEERSt13basic_ostreamIcT_ES5_PKc(ptr noundef nonnull align 8 dereferenceable(8) %35, ptr noundef @.str.7)
  %37 = load ptr, ptr %7, align 8
  %38 = getelementptr inbounds [4 x [4 x i8]], ptr %11, i64 0, i64 0
  call void @_ZNK11TransTableL8LenToStrB5cxx11EPA4_Kh(ptr dead_on_unwind writable sret(%"class.std::__cxx11::basic_string") align 8 %13, ptr noundef nonnull align 8 dereferenceable(664216) %16, ptr noundef %38)
  %39 = invoke noundef nonnull align 8 dereferenceable(8) ptr @_ZStlsIcSt11char_traitsIcESaIcEERSt13basic_ostreamIT_T0_ES7_RKNSt7__cxx1112basic_stringIS4_S5_T1_EE(ptr noundef nonnull align 8 dereferenceable(8) %37, ptr noundef nonnull align 8 dereferenceable(32) %13)
          to label %40 unwind label %43

40:                                               ; preds = %26
  %41 = invoke noundef nonnull align 8 dereferenceable(8) ptr @_ZStlsISt11char_traitsIcEERSt13basic_ostreamIcT_ES5_PKc(ptr noundef nonnull align 8 dereferenceable(8) %39, ptr noundef @.str.12)
          to label %42 unwind label %43

42:                                               ; preds = %40
  call void @_ZNSt7__cxx1112basic_stringIcSt11char_traitsIcESaIcEED1Ev(ptr noundef nonnull align 8 dereferenceable(32) %13) #3
  br label %51

43:                                               ; preds = %40, %26
  %44 = landingpad { ptr, i32 }
          cleanup
  %45 = extractvalue { ptr, i32 } %44, 0
  store ptr %45, ptr %14, align 8
  %46 = extractvalue { ptr, i32 } %44, 1
  store i32 %46, ptr %15, align 4
  call void @_ZNSt7__cxx1112basic_stringIcSt11char_traitsIcESaIcEED1Ev(ptr noundef nonnull align 8 dereferenceable(32) %13) #3
  br label %52

47:                                               ; preds = %5
  %48 = load ptr, ptr %7, align 8
  %49 = load ptr, ptr %12, align 8
  %50 = getelementptr inbounds [4 x [4 x i8]], ptr %11, i64 0, i64 0
  call void @_ZNK11TransTableL17PrintEntriesBlockERSt14basic_ofstreamIcSt11char_traitsIcEEPKNS_12winBlockTypeEPA4_Kh(ptr noundef nonnull align 8 dereferenceable(664216) %16, ptr noundef nonnull align 8 dereferenceable(248) %48, ptr noundef %49, ptr noundef %50)
  br label %51

51:                                               ; preds = %47, %42
  ret void

52:                                               ; preds = %43
  %53 = load ptr, ptr %14, align 8
  %54 = load i32, ptr %15, align 4
  %55 = insertvalue { ptr, i32 } poison, ptr %53, 0
  %56 = insertvalue { ptr, i32 } %55, i32 %54, 1
  resume { ptr, i32 } %56
}