; Function Attrs: mustprogress uwtable
define void @_ZNK11TransTableL16PrintEntriesDistERSt14basic_ofstreamIcSt11char_traitsIcEEiiPKi(ptr nocapture noundef nonnull readonly align 8 dereferenceable(664216) %0, ptr noundef nonnull align 8 dereferenceable(248) %1, i32 noundef %2, i32 noundef %3, ptr nocapture noundef readonly %4) unnamed_addr #21 align 2 personality ptr @__gxx_personality_v0 {
  %6 = alloca [4 x i32], align 16
  %7 = alloca [4 x [4 x i8]], align 16
  %8 = alloca %"class.std::__cxx11::basic_string", align 8
  call void @llvm.lifetime.start.p0(i64 16, ptr nonnull %6)
  %9 = getelementptr inbounds nuw i8, ptr %0, i64 655416
  %10 = sext i32 %2 to i64
  %11 = sext i32 %3 to i64
  %12 = getelementptr inbounds [12 x [4 x ptr]], ptr %9, i64 0, i64 %10, i64 %11
  %13 = load ptr, ptr %12, align 8
  %14 = getelementptr inbounds i8, ptr %6, i64 4
  %15 = getelementptr inbounds i8, ptr %6, i64 8
  %16 = getelementptr inbounds i8, ptr %6, i64 12
  br label %17

17:                                               ; preds = %._crit_edge.i, %5
  %indvars.iv35.i = phi i64 [ 0, %5 ], [ %indvars.iv.next36.i, %._crit_edge.i ]
  %18 = getelementptr inbounds %"struct.TransTableL::distHashType", ptr %13, i64 %indvars.iv35.i
  %19 = load i32, ptr %18, align 8
  %20 = icmp sgt i32 %19, 0
  br i1 %20, label %.lr.ph.i, label %._crit_edge.i

.lr.ph.i:                                         ; preds = %17
  %21 = getelementptr inbounds nuw i8, ptr %18, i64 8
  %wide.trip.count.i = zext nneg i32 %19 to i64
  br label %22

22:                                               ; preds = %43, %.lr.ph.i
  %indvars.iv31.i = phi i64 [ 0, %.lr.ph.i ], [ %indvars.iv.next32.i, %43 ]
  %23 = getelementptr inbounds [32 x %"struct.TransTableL::posSearchType"], ptr %21, i64 0, i64 %indvars.iv31.i
  %24 = load ptr, ptr %23, align 8
  %25 = getelementptr inbounds nuw i8, ptr %23, i64 8
  %26 = load i64, ptr %25, align 8
  %27 = lshr i64 %26, 36
  %28 = trunc nuw nsw i64 %27 to i32
  %29 = and i32 %28, 4095
  store i32 %29, ptr %6, align 16
  %30 = lshr i64 %26, 24
  %31 = trunc i64 %30 to i32
  %32 = and i32 %31, 4095
  store i32 %32, ptr %14, align 4
  %33 = trunc i64 %26 to i32
  %34 = lshr i32 %33, 12
  %35 = and i32 %34, 4095
  store i32 %35, ptr %15, align 8
  %36 = and i32 %33, 4095
  store i32 %36, ptr %16, align 4
  br label %38

37:                                               ; preds = %38
  %indvars.iv.next.i = add nuw nsw i64 %indvars.iv.i, 1
  %exitcond.i = icmp eq i64 %indvars.iv.next.i, 4
  br i1 %exitcond.i, label %_ZNK11TransTableL16FindMatchingDistEiiPKi.exit, label %38, !llvm.loop !73

38:                                               ; preds = %37, %22
  %indvars.iv.i = phi i64 [ 0, %22 ], [ %indvars.iv.next.i, %37 ]
  %39 = getelementptr inbounds [4 x i32], ptr %6, i64 0, i64 %indvars.iv.i
  %40 = load i32, ptr %39, align 4
  %41 = getelementptr inbounds i32, ptr %4, i64 %indvars.iv.i
  %42 = load i32, ptr %41, align 4
  %.not.i = icmp eq i32 %40, %42
  br i1 %.not.i, label %37, label %43

43:                                               ; preds = %38
  %indvars.iv.next32.i = add nuw nsw i64 %indvars.iv31.i, 1
  %exitcond34.not.i = icmp eq i64 %indvars.iv.next32.i, %wide.trip.count.i
  br i1 %exitcond34.not.i, label %._crit_edge.i, label %22, !llvm.loop !74

._crit_edge.i:                                    ; preds = %43, %17
  %indvars.iv.next36.i = add nuw nsw i64 %indvars.iv35.i, 1
  %exitcond38.not.i = icmp eq i64 %indvars.iv.next36.i, 256
  br i1 %exitcond38.not.i, label %_ZNK11TransTableL16FindMatchingDistEiiPKi.exit, label %17, !llvm.loop !75

_ZNK11TransTableL16FindMatchingDistEiiPKi.exit:   ; preds = %._crit_edge.i, %37
  %.023.i = phi ptr [ %24, %37 ], [ null, %._crit_edge.i ]
  call void @llvm.lifetime.end.p0(i64 16, ptr nonnull %6)
  %.neg18 = add i32 %2, 1
  br label %44

44:                                               ; preds = %44, %_ZNK11TransTableL16FindMatchingDistEiiPKi.exit
  %indvars.iv.i14 = phi i64 [ 0, %_ZNK11TransTableL16FindMatchingDistEiiPKi.exit ], [ %indvars.iv.next.i15, %44 ]
  %45 = getelementptr inbounds i32, ptr %4, i64 %indvars.iv.i14
  %46 = load i32, ptr %45, align 4
  %47 = lshr i32 %46, 8
  %48 = trunc i32 %47 to i8
  %49 = and i8 %48, 15
  %50 = getelementptr inbounds [4 x i8], ptr %7, i64 %indvars.iv.i14
  store i8 %49, ptr %50, align 4
  %51 = trunc i32 %46 to i8
  %52 = lshr i8 %51, 4
  %53 = getelementptr inbounds i8, ptr %50, i64 1
  store i8 %52, ptr %53, align 1
  %54 = and i8 %51, 15
  %55 = getelementptr inbounds i8, ptr %50, i64 2
  store i8 %54, ptr %55, align 2
  %56 = and i32 %47, 15
  %57 = zext nneg i8 %52 to i32
  %58 = and i32 %46, 15
  %59 = add nuw nsw i32 %58, %56
  %60 = add nuw nsw i32 %59, %57
  %61 = sub i32 %.neg18, %60
  %62 = trunc i32 %61 to i8
  %63 = getelementptr inbounds i8, ptr %50, i64 3
  store i8 %62, ptr %63, align 1
  %indvars.iv.next.i15 = add nuw nsw i64 %indvars.iv.i14, 1
  %exitcond.not.i = icmp eq i64 %indvars.iv.next.i15, 4
  br i1 %exitcond.not.i, label %_ZNK11TransTableL13DistToLengthsEiPKiPA4_h.exit, label %44, !llvm.loop !41

_ZNK11TransTableL13DistToLengthsEiPKiPA4_h.exit:  ; preds = %44
  %.not = icmp eq ptr %.023.i, null
  br i1 %.not, label %64, label %79

64:                                               ; preds = %_ZNK11TransTableL13DistToLengthsEiPKiPA4_h.exit
  %65 = tail call noundef nonnull align 8 dereferenceable(8) ptr @_ZStlsISt11char_traitsIcEERSt13basic_ostreamIcT_ES5_PKc(ptr noundef nonnull align 8 dereferenceable(8) %1, ptr noundef nonnull @.str.39)
  %66 = tail call noundef nonnull align 8 dereferenceable(8) ptr @_ZNSolsEi(ptr noundef nonnull align 8 dereferenceable(8) %65, i32 noundef %2)
  %67 = tail call noundef nonnull align 8 dereferenceable(8) ptr @_ZStlsISt11char_traitsIcEERSt13basic_ostreamIcT_ES5_PKc(ptr noundef nonnull align 8 dereferenceable(8) %66, ptr noundef nonnull @.str.21)
  %68 = zext i32 %3 to i64
  %69 = load ptr, ptr @_ZL7playersB5cxx11, align 8
  %70 = getelementptr inbounds %"class.std::__cxx11::basic_string", ptr %69, i64 %68
  %71 = tail call noundef nonnull align 8 dereferenceable(8) ptr @_ZStlsIcSt11char_traitsIcESaIcEERSt13basic_ostreamIT_T0_ES7_RKNSt7__cxx1112basic_stringIS4_S5_T1_EE(ptr noundef nonnull align 8 dereferenceable(8) %67, ptr noundef nonnull align 8 dereferenceable(32) %70)
  %72 = tail call noundef nonnull align 8 dereferenceable(8) ptr @_ZStlsISt11char_traitsIcEERSt13basic_ostreamIcT_ES5_PKc(ptr noundef nonnull align 8 dereferenceable(8) %71, ptr noundef nonnull @.str.7)
  call void @_ZNK11TransTableL8LenToStrB5cxx11EPA4_Kh(ptr dead_on_unwind nonnull writable sret(%"class.std::__cxx11::basic_string") align 8 %8, ptr nonnull align 8 poison, ptr noundef nonnull %7)
  %73 = invoke noundef nonnull align 8 dereferenceable(8) ptr @_ZStlsIcSt11char_traitsIcESaIcEERSt13basic_ostreamIT_T0_ES7_RKNSt7__cxx1112basic_stringIS4_S5_T1_EE(ptr noundef nonnull align 8 dereferenceable(8) %1, ptr noundef nonnull align 8 dereferenceable(32) %8)
          to label %74 unwind label %77

74:                                               ; preds = %64
  %75 = invoke noundef nonnull align 8 dereferenceable(8) ptr @_ZStlsISt11char_traitsIcEERSt13basic_ostreamIcT_ES5_PKc(ptr noundef nonnull align 8 dereferenceable(8) %73, ptr noundef nonnull @.str.12)
          to label %76 unwind label %77

76:                                               ; preds = %74
  call void @_ZNSt7__cxx1112basic_stringIcSt11char_traitsIcESaIcEED1Ev(ptr noundef nonnull align 8 dereferenceable(32) %8) #32
  br label %80

77:                                               ; preds = %74, %64
  %78 = landingpad { ptr, i32 }
          cleanup
  call void @_ZNSt7__cxx1112basic_stringIcSt11char_traitsIcESaIcEED1Ev(ptr noundef nonnull align 8 dereferenceable(32) %8) #32
  resume { ptr, i32 } %78

79:                                               ; preds = %_ZNK11TransTableL13DistToLengthsEiPKiPA4_h.exit
  call void @_ZNK11TransTableL17PrintEntriesBlockERSt14basic_ofstreamIcSt11char_traitsIcEEPKNS_12winBlockTypeEPA4_Kh(ptr noundef nonnull align 8 dereferenceable(664216) %0, ptr noundef nonnull align 8 dereferenceable(248) %1, ptr noundef nonnull %.023.i, ptr noundef nonnull %7)
  br label %80

80:                                               ; preds = %79, %76
  ret void
}